target datalayout = "e-m:e-p270:32:32-p271:32:32-p272:64:64-i64:64-i128:128-f80:128-n8:16:32:64-S128"
target triple = "x86_64-pc-linux-gnu"

@duckdb_je_thp_mode_names = external constant [0 x ptr], align 8
@duckdb_je_opt_thp = external global i32, align 4

; Function Attrs: nounwind uwtable
define internal i32 @opt_thp_ctl(ptr noundef %0, ptr noundef %1, i64 noundef %2, ptr noundef %3, ptr noundef %4, ptr noundef %5, i64 noundef %6) #0 {
  %8 = alloca i32, align 4
  %9 = alloca ptr, align 8
  %10 = alloca ptr, align 8
  %11 = alloca i64, align 8
  %12 = alloca ptr, align 8
  %13 = alloca ptr, align 8
  %14 = alloca ptr, align 8
  %15 = alloca i64, align 8
  %16 = alloca i32, align 4
  %17 = alloca ptr, align 8
  %18 = alloca i64, align 8
  %19 = alloca i32, align 4
  store ptr %0, ptr %9, align 8, !tbaa !3
  store ptr %1, ptr %10, align 8, !tbaa !11
  store i64 %2, ptr %11, align 8, !tbaa !13
  store ptr %3, ptr %12, align 8, !tbaa !10
  store ptr %4, ptr %13, align 8, !tbaa !11
  store ptr %5, ptr %14, align 8, !tbaa !10
  store i64 %6, ptr %15, align 8, !tbaa !13
  call void @llvm.lifetime.start.p0(i64 4, ptr %16) #13
  call void @llvm.lifetime.start.p0(i64 8, ptr %17) #13
  br label %20

20:                                               ; preds = %7
  %21 = load ptr, ptr %14, align 8, !tbaa !10
  %22 = icmp ne ptr %21, null
  br i1 %22, label %26, label %23

23:                                               ; preds = %20
  %24 = load i64, ptr %15, align 8, !tbaa !13
  %25 = icmp ne i64 %24, 0
  br i1 %25, label %26, label %27

26:                                               ; preds = %23, %20
  store i32 1, ptr %16, align 4, !tbaa !19
  br label %65

27:                                               ; preds = %23
  br label %28

28:                                               ; preds = %27
  br label %29

29:                                               ; preds = %28
  %30 = load i32, ptr @duckdb_je_opt_thp, align 4, !tbaa !19
  %31 = zext i32 %30 to i64
  %32 = getelementptr inbounds nuw [0 x ptr], ptr @duckdb_je_thp_mode_names, i64 0, i64 %31
  %33 = load ptr, ptr %32, align 8, !tbaa !8
  store ptr %33, ptr %17, align 8, !tbaa !8
  br label %34

34:                                               ; preds = %29
  %35 = load ptr, ptr %12, align 8, !tbaa !10
  %36 = icmp ne ptr %35, null
  br i1 %36, label %37, label %62

37:                                               ; preds = %34
  %38 = load ptr, ptr %13, align 8, !tbaa !11
  %39 = icmp ne ptr %38, null
  br i1 %39, label %40, label %62

40:                                               ; preds = %37
  %41 = load ptr, ptr %13, align 8, !tbaa !11
  %42 = load i64, ptr %41, align 8, !tbaa !13
  %43 = icmp ne i64 %42, 8
  br i1 %43, label %44, label %59

44:                                               ; preds = %40
  call void @llvm.lifetime.start.p0(i64 8, ptr %18) #13
  %45 = load ptr, ptr %13, align 8, !tbaa !11
  %46 = load i64, ptr %45, align 8, !tbaa !13
  %47 = icmp ule i64 8, %46
  br i1 %47, label %48, label %49

48:                                               ; preds = %44
  br label %52

49:                                               ; preds = %44
  %50 = load ptr, ptr %13, align 8, !tbaa !11
  %51 = load i64, ptr %50, align 8, !tbaa !13
  br label %52

52:                                               ; preds = %49, %48
  %53 = phi i64 [ 8, %48 ], [ %51, %49 ]
  store i64 %53, ptr %18, align 8, !tbaa !13
  %54 = load ptr, ptr %12, align 8, !tbaa !10
  %55 = load i64, ptr %18, align 8, !tbaa !13
  call void @llvm.memcpy.p0.p0.i64(ptr align 1 %54, ptr align 1 %17, i64 %55, i1 false)
  %56 = load i64, ptr %18, align 8, !tbaa !13
  %57 = load ptr, ptr %13, align 8, !tbaa !11
  store i64 %56, ptr %57, align 8, !tbaa !13
  store i32 22, ptr %16, align 4, !tbaa !19
  store i32 4, ptr %19, align 4
  call void @llvm.lifetime.end.p0(i64 8, ptr %18) #13
  %58 = load i32, ptr %19, align 4
  switch i32 %58, label %67 [
    i32 4, label %65
  ]

59:                                               ; preds = %40
  %60 = load ptr, ptr %17, align 8, !tbaa !8
  %61 = load ptr, ptr %12, align 8, !tbaa !10
  store ptr %60, ptr %61, align 8, !tbaa !8
  br label %62

62:                                               ; preds = %59, %37, %34
  br label %63

63:                                               ; preds = %62
  br label %64

64:                                               ; preds = %63
  store i32 0, ptr %16, align 4, !tbaa !19
  br label %65

65:                                               ; preds = %64, %52, %26
  %66 = load i32, ptr %16, align 4, !tbaa !19
  store i32 %66, ptr %8, align 4
  store i32 1, ptr %19, align 4
  br label %67

67:                                               ; preds = %65, %52
  call void @llvm.lifetime.end.p0(i64 8, ptr %17) #13
  call void @llvm.lifetime.end.p0(i64 4, ptr %16) #13
  %68 = load i32, ptr %8, align 4
  ret i32 %68
}